; Function Attrs: mustprogress nofree norecurse nosync nounwind memory(argmem: readwrite) uwtable
define dso_local void @_ZNK16btCylinderShapeX49batchedUnitVectorGetSupportingVertexWithoutMarginEPK9btVector3PS0_i(ptr nocapture noundef nonnull readonly align 8 dereferenceable(76) %this, ptr nocapture noundef readonly %vectors, ptr nocapture noundef writeonly %supportVerticesOut, i32 noundef %numVectors) unnamed_addr #5 align 2 {
entry:
  %cmp4 = icmp sgt i32 %numVectors, 0
  br i1 %cmp4, label %for.body.lr.ph, label %for.end

for.body.lr.ph:                                   ; preds = %entry
  %m_implicitShapeDimensions.i = getelementptr inbounds i8, ptr %this, i64 48
  %arrayidx.i = getelementptr inbounds i8, ptr %this, i64 52
  %wide.trip.count = zext nneg i32 %numVectors to i64
  br label %for.body

for.body:                                         ; preds = %for.body.lr.ph, %_Z21CylinderLocalSupportXRK9btVector3S1_.exit
  %indvars.iv = phi i64 [ 0, %for.body.lr.ph ], [ %indvars.iv.next, %_Z21CylinderLocalSupportXRK9btVector3S1_.exit ]
  %arrayidx = getelementptr inbounds %class.btVector3, ptr %vectors, i64 %indvars.iv
  %0 = load float, ptr %arrayidx.i, align 4
  %1 = load float, ptr %m_implicitShapeDimensions.i, align 8
  %arrayidx4.i = getelementptr inbounds i8, ptr %arrayidx, i64 4
  %2 = load float, ptr %arrayidx4.i, align 4
  %arrayidx8.i = getelementptr inbounds i8, ptr %arrayidx, i64 8
  %3 = load float, ptr %arrayidx8.i, align 4
  %mul11.i = fmul float %3, %3
  %4 = tail call float @llvm.fmuladd.f32(float %2, float %2, float %mul11.i)
  %sqrt.i = tail call float @llvm.sqrt.f32(float %4)
  %cmp.i = fcmp une float %sqrt.i, 0.000000e+00
  br i1 %cmp.i, label %if.then.i, label %if.else.i

if.then.i:                                        ; preds = %for.body
  %div.i = fdiv float %0, %sqrt.i
  %mul.i = fmul float %2, %div.i
  %5 = load float, ptr %arrayidx, align 4
  %cmp19.i = fcmp olt float %5, 0.000000e+00
  %fneg.i = fneg float %1
  %cond.i = select i1 %cmp19.i, float %fneg.i, float %1
  %6 = insertelement <2 x float> poison, float %cond.i, i64 0
  %retval.sroa.0.0.vec.insert.i = insertelement <2 x float> %6, float %mul.i, i64 1
  %mul24.i = fmul float %3, %div.i
  %retval.sroa.5.8.vec.insert.i = insertelement <2 x float> <float poison, float undef>, float %mul24.i, i64 0
  br label %_Z21CylinderLocalSupportXRK9btVector3S1_.exit

if.else.i:                                        ; preds = %for.body
  %7 = load float, ptr %arrayidx, align 4
  %cmp32.i = fcmp olt float %7, 0.000000e+00
  %fneg34.i = fneg float %1
  %cond37.i = select i1 %cmp32.i, float %fneg34.i, float %1
  %8 = insertelement <2 x float> poison, float %cond37.i, i64 0
  %retval.sroa.0.0.vec.insert17.i = insertelement <2 x float> %8, float %0, i64 1
  br label %_Z21CylinderLocalSupportXRK9btVector3S1_.exit

_Z21CylinderLocalSupportXRK9btVector3S1_.exit:    ; preds = %if.then.i, %if.else.i
  %retval.sroa.5.0.i = phi <2 x float> [ %retval.sroa.5.8.vec.insert.i, %if.then.i ], [ <float 0.000000e+00, float undef>, %if.else.i ]
  %retval.sroa.0.0.i = phi <2 x float> [ %retval.sroa.0.0.vec.insert.i, %if.then.i ], [ %retval.sroa.0.0.vec.insert17.i, %if.else.i ]
  %arrayidx4 = getelementptr inbounds %class.btVector3, ptr %supportVerticesOut, i64 %indvars.iv
  store <2 x float> %retval.sroa.0.0.i, ptr %arrayidx4, align 4
  %ref.tmp.sroa.2.0.arrayidx4.sroa_idx = getelementptr inbounds i8, ptr %arrayidx4, i64 8
  store <2 x float> %retval.sroa.5.0.i, ptr %ref.tmp.sroa.2.0.arrayidx4.sroa_idx, align 4
  %indvars.iv.next = add nuw nsw i64 %indvars.iv, 1
  %exitcond.not = icmp eq i64 %indvars.iv.next, %wide.trip.count
  br i1 %exitcond.not, label %for.end, label %for.body, !llvm.loop !11

for.end:                                          ; preds = %_Z21CylinderLocalSupportXRK9btVector3S1_.exit, %entry
  ret void
}